target datalayout = "e-m:e-p270:32:32-p271:32:32-p272:64:64-i64:64-i128:128-f80:128-n8:16:32:64-S128"
target triple = "x86_64-pc-linux-gnu"

; Function Attrs: mustprogress nounwind uwtable
define hidden noundef i32 @_Z8nlz_corej(i32 noundef %0) #4 {
  %2 = alloca i32, align 4
  store i32 %0, ptr %2, align 4, !tbaa !3
  %3 = load i32, ptr %2, align 4, !tbaa !3
  %4 = call i32 @llvm.ctlz.i32(i32 %3, i1 true)
  ret i32 %4
}

; Function Attrs: mustprogress nounwind uwtable
define hidden noundef i32 @_Z3nlzjPKj(i32 noundef %0, ptr noundef %1) #4 {
  %3 = alloca i32, align 4
  %4 = alloca i32, align 4
  %5 = alloca ptr, align 8
  %6 = alloca i32, align 4
  %7 = alloca i32, align 4
  %8 = alloca i32, align 4
  %9 = alloca i32, align 4
  store i32 %0, ptr %4, align 4, !tbaa !3
  store ptr %1, ptr %5, align 8, !tbaa !7
  call void @llvm.lifetime.start.p0(i64 4, ptr %6) #3
  store i32 0, ptr %6, align 4, !tbaa !3
  call void @llvm.lifetime.start.p0(i64 4, ptr %7) #3
  %10 = load i32, ptr %4, align 4, !tbaa !3
  store i32 %10, ptr %7, align 4, !tbaa !3
  br label %11

11:                                               ; preds = %35, %2
  %12 = load i32, ptr %7, align 4, !tbaa !3
  %13 = icmp ugt i32 %12, 0
  br i1 %13, label %14, label %36

14:                                               ; preds = %11
  %15 = load i32, ptr %7, align 4, !tbaa !3
  %16 = add i32 %15, -1
  store i32 %16, ptr %7, align 4, !tbaa !3
  call void @llvm.lifetime.start.p0(i64 4, ptr %8) #3
  %17 = load ptr, ptr %5, align 8, !tbaa !7
  %18 = load i32, ptr %7, align 4, !tbaa !3
  %19 = zext i32 %18 to i64
  %20 = getelementptr inbounds nuw i32, ptr %17, i64 %19
  %21 = load i32, ptr %20, align 4, !tbaa !3
  store i32 %21, ptr %8, align 4, !tbaa !3
  %22 = load i32, ptr %8, align 4, !tbaa !3
  %23 = icmp eq i32 %22, 0
  br i1 %23, label %24, label %27

24:                                               ; preds = %14
  %25 = load i32, ptr %6, align 4, !tbaa !3
  %26 = add i32 %25, 32
  store i32 %26, ptr %6, align 4, !tbaa !3
  br label %32

27:                                               ; preds = %14
  %28 = load i32, ptr %6, align 4, !tbaa !3
  %29 = load i32, ptr %8, align 4, !tbaa !3
  %30 = call noundef i32 @_Z8nlz_corej(i32 noundef %29)
  %31 = add i32 %28, %30
  store i32 %31, ptr %3, align 4
  store i32 1, ptr %9, align 4
  br label %33

32:                                               ; preds = %24
  store i32 0, ptr %9, align 4
  br label %33

33:                                               ; preds = %32, %27
  call void @llvm.lifetime.end.p0(i64 4, ptr %8) #3
  %34 = load i32, ptr %9, align 4
  switch i32 %34, label %38 [
    i32 0, label %35
  ]

35:                                               ; preds = %33
  br label %11, !llvm.loop !10

36:                                               ; preds = %11
  %37 = load i32, ptr %6, align 4, !tbaa !3
  store i32 %37, ptr %3, align 4
  store i32 1, ptr %9, align 4
  br label %38

38:                                               ; preds = %36, %33
  call void @llvm.lifetime.end.p0(i64 4, ptr %7) #3
  call void @llvm.lifetime.end.p0(i64 4, ptr %6) #3
  %39 = load i32, ptr %3, align 4
  ret i32 %39
}