; Function Attrs: mustprogress nofree norecurse nosync nounwind willreturn memory(argmem: read) uwtable
define hidden noundef i32 @_Z3nlzjPKj(i32 noundef %0, ptr noundef readonly captures(none) %1) local_unnamed_addr #5 {
  %.not19 = icmp eq i32 %0, 0
  br i1 %.not19, label %.loopexit, label %.lr.ph.preheader

.lr.ph.preheader:                                 ; preds = %2
  %3 = zext i32 %0 to i64
  %4 = shl i32 %0, 5
  br label %.lr.ph

.lr.ph:                                           ; preds = %.lr.ph.preheader, %11
  %indvars.iv = phi i64 [ %3, %.lr.ph.preheader ], [ %5, %11 ]
  %.01320 = phi i32 [ 0, %.lr.ph.preheader ], [ %12, %11 ]
  %5 = add nsw i64 %indvars.iv, -1
  %6 = getelementptr inbounds nuw i32, ptr %1, i64 %5
  %7 = load i32, ptr %6, align 4, !tbaa !3
  %8 = icmp eq i32 %7, 0
  br i1 %8, label %11, label %.thread

.thread:                                          ; preds = %.lr.ph
  %9 = tail call noundef range(i32 0, 32) i32 @llvm.ctlz.i32(i32 %7, i1 true)
  %10 = or disjoint i32 %9, %.01320
  br label %.loopexit

11:                                               ; preds = %.lr.ph
  %12 = add i32 %.01320, 32
  %.not.wide = icmp eq i64 %5, 0
  br i1 %.not.wide, label %.loopexit, label %.lr.ph, !llvm.loop !7

.loopexit:                                        ; preds = %11, %2, %.thread
  %.2 = phi i32 [ %10, %.thread ], [ 0, %2 ], [ %4, %11 ]
  ret i32 %.2
}